target datalayout = "e-m:e-p270:32:32-p271:32:32-p272:64:64-i64:64-i128:128-f80:128-n8:16:32:64-S128"
target triple = "x86_64-pc-linux-gnu"

@_ZL20gbl_cur_main_window_ = internal global ptr null, align 8
@.str.611 = private unnamed_addr constant [9 x i8] c"frame_nr\00", align 1

; Function Attrs: mustprogress uwtable
define internal void @_ZL30plugin_if_mainwindow_gotoframeP11_GHashTable(ptr noundef %0) #0 {
  %2 = alloca ptr, align 8
  %3 = alloca ptr, align 8
  store ptr %0, ptr %2, align 8
  %4 = load ptr, ptr @_ZL20gbl_cur_main_window_, align 8
  %5 = icmp ne ptr %4, null
  br i1 %5, label %6, label %9

6:                                                ; preds = %1
  %7 = load ptr, ptr %2, align 8
  %8 = icmp ne ptr %7, null
  br i1 %8, label %10, label %9

9:                                                ; preds = %6, %1
  br label %25

10:                                               ; preds = %6
  %11 = load ptr, ptr %2, align 8
  %12 = call i32 @g_hash_table_lookup_extended(ptr noundef %11, ptr noundef @.str.611, ptr noundef null, ptr noundef %3)
  %13 = icmp ne i32 %12, 0
  br i1 %13, label %14, label %25

14:                                               ; preds = %10
  %15 = load ptr, ptr %3, align 8
  %16 = ptrtoint ptr %15 to i64
  %17 = trunc i64 %16 to i32
  %18 = icmp ne i32 %17, 0
  br i1 %18, label %19, label %24

19:                                               ; preds = %14
  %20 = load ptr, ptr @_ZL20gbl_cur_main_window_, align 8
  %21 = load ptr, ptr %3, align 8
  %22 = ptrtoint ptr %21 to i64
  %23 = trunc i64 %22 to i32
  call void @_ZN10MainWindow9gotoFrameEi(ptr noundef nonnull align 8 dereferenceable(272) %20, i32 noundef %23)
  br label %24

24:                                               ; preds = %19, %14
  br label %25

25:                                               ; preds = %24, %10, %9
  ret void
}