; Function Attrs: mustprogress uwtable
define internal void @_ZL30plugin_if_mainwindow_gotoframeP11_GHashTable(ptr noundef %0) #0 {
  %2 = alloca ptr, align 8
  %3 = load ptr, ptr @_ZL20gbl_cur_main_window_, align 8
  %4 = icmp ne ptr %3, null
  %5 = icmp ne ptr %0, null
  %or.cond = and i1 %5, %4
  br i1 %or.cond, label %6, label %15

6:                                                ; preds = %1
  %7 = call i32 @g_hash_table_lookup_extended(ptr noundef nonnull %0, ptr noundef nonnull @.str.611, ptr noundef null, ptr noundef nonnull %2)
  %8 = icmp ne i32 %7, 0
  %9 = load ptr, ptr %2, align 8
  %10 = ptrtoint ptr %9 to i64
  %11 = trunc i64 %10 to i32
  %12 = icmp ne i32 %11, 0
  %or.cond5 = select i1 %8, i1 %12, i1 false
  br i1 %or.cond5, label %13, label %15

13:                                               ; preds = %6
  %14 = load ptr, ptr @_ZL20gbl_cur_main_window_, align 8
  call void @_ZN10MainWindow9gotoFrameEi(ptr noundef nonnull align 8 dereferenceable(272) %14, i32 noundef %11)
  br label %15

15:                                               ; preds = %13, %1, %6
  ret void
}